target datalayout = "e-m:e-p270:32:32-p271:32:32-p272:64:64-i64:64-i128:128-f80:128-n8:16:32:64-S128"
target triple = "x86_64-pc-linux-gnu"

%struct.SDL_GPUDevice = type { ptr, ptr, ptr, ptr, ptr, ptr, ptr, ptr, ptr, ptr, ptr, ptr, ptr, ptr, ptr, ptr, ptr, ptr, ptr, ptr, ptr, ptr, ptr, ptr, ptr, ptr, ptr, ptr, ptr, ptr, ptr, ptr, ptr, ptr, ptr, ptr, ptr, ptr, ptr, ptr, ptr, ptr, ptr, ptr, ptr, ptr, ptr, ptr, ptr, ptr, ptr, ptr, ptr, ptr, ptr, ptr, ptr, ptr, ptr, ptr, ptr, ptr, ptr, ptr, ptr, ptr, ptr, ptr, ptr, ptr, ptr, ptr, ptr, ptr, ptr, ptr, ptr, ptr, ptr, ptr, ptr, ptr, ptr, ptr, ptr, i32, i8 }
%struct.CommandBufferCommonHeader = type { ptr, %struct.RenderPass, i8, %struct.Pass, i8, %struct.Pass, i8, i8, i8 }
%struct.RenderPass = type { ptr, i8, [4 x ptr], i32, ptr }
%struct.Pass = type { ptr, i8 }

@.str.4 = private unnamed_addr constant [26 x i8] c"Parameter '%s' is invalid\00", align 1
@.str.8 = private unnamed_addr constant [103 x i8] c"generated/home/dtcxzyw/WorkSpace/Projects/compilers/llvm-opt-benchmark/bench/sdl/SDL/src/gpu/SDL_gpu.c\00", align 1
@.str.179 = private unnamed_addr constant [15 x i8] c"command_buffer\00", align 1
@.str.182 = private unnamed_addr constant [5 x i8] c"name\00", align 1
@SDL_PushGPUDebugGroup_REAL.sdl_assert_data = internal global { i8, [3 x i8], i32, ptr, ptr, i32, [4 x i8], ptr, ptr } { i8 0, [3 x i8] zeroinitializer, i32 0, ptr @.str.181, ptr null, i32 0, [4 x i8] zeroinitializer, ptr null, ptr null }, align 8
@__func__.SDL_PushGPUDebugGroup_REAL = private unnamed_addr constant [27 x i8] c"SDL_PushGPUDebugGroup_REAL\00", align 1

; Function Attrs: nounwind uwtable
define hidden void @SDL_PushGPUDebugGroup_REAL(ptr noundef %0, ptr noundef %1) #0 {
  %3 = alloca ptr, align 8
  %4 = alloca ptr, align 8
  %5 = alloca i32, align 4
  %6 = alloca i32, align 4
  store ptr %0, ptr %3, align 8
  store ptr %1, ptr %4, align 8
  %7 = load ptr, ptr %3, align 8
  %8 = icmp eq ptr %7, null
  br i1 %8, label %9, label %11

9:                                                ; preds = %2
  %10 = call zeroext i1 (ptr, ...) @SDL_SetError_REAL(ptr noundef @.str.4, ptr noundef @.str.179)
  br label %54

11:                                               ; preds = %2
  %12 = load ptr, ptr %4, align 8
  %13 = icmp eq ptr %12, null
  br i1 %13, label %14, label %16

14:                                               ; preds = %11
  %15 = call zeroext i1 (ptr, ...) @SDL_SetError_REAL(ptr noundef @.str.4, ptr noundef @.str.182)
  br label %54

16:                                               ; preds = %11
  %17 = load ptr, ptr %3, align 8
  %18 = getelementptr inbounds nuw %struct.CommandBufferCommonHeader, ptr %17, i32 0, i32 0
  %19 = load ptr, ptr %18, align 8
  %20 = getelementptr inbounds nuw %struct.SDL_GPUDevice, ptr %19, i32 0, i32 86
  %21 = load i8, ptr %20, align 4, !range !5, !noundef !6
  %22 = trunc i8 %21 to i1
  br i1 %22, label %23, label %46

23:                                               ; preds = %16
  %24 = load ptr, ptr %3, align 8
  %25 = getelementptr inbounds nuw %struct.CommandBufferCommonHeader, ptr %24, i32 0, i32 7
  %26 = load i8, ptr %25, align 1, !range !5, !noundef !6
  %27 = trunc i8 %26 to i1
  br i1 %27, label %28, label %45

28:                                               ; preds = %23
  br label %29

29:                                               ; preds = %28
  br label %30

30:                                               ; preds = %29, %41
  call void @llvm.lifetime.start.p0(i64 4, ptr %5) #6
  %31 = call i32 @SDL_ReportAssertion_REAL(ptr noundef @SDL_PushGPUDebugGroup_REAL.sdl_assert_data, ptr noundef @__func__.SDL_PushGPUDebugGroup_REAL, ptr noundef @.str.8, i32 noundef 1341)
  store i32 %31, ptr %5, align 4
  %32 = load i32, ptr %5, align 4
  %33 = icmp eq i32 %32, 0
  br i1 %33, label %34, label %35

34:                                               ; preds = %30
  store i32 4, ptr %6, align 4
  br label %41

35:                                               ; preds = %30
  %36 = load i32, ptr %5, align 4
  %37 = icmp eq i32 %36, 1
  br i1 %37, label %38, label %39

38:                                               ; preds = %35
  call void @llvm.debugtrap()
  br label %39

39:                                               ; preds = %38, %35
  br label %40

40:                                               ; preds = %39
  store i32 5, ptr %6, align 4
  br label %41

41:                                               ; preds = %40, %34
  call void @llvm.lifetime.end.p0(i64 4, ptr %5) #6
  %42 = load i32, ptr %6, align 4
  switch i32 %42, label %55 [
    i32 4, label %30
    i32 5, label %43
  ]

43:                                               ; preds = %41
  br label %44

44:                                               ; preds = %43
  br label %54

45:                                               ; preds = %23
  br label %46

46:                                               ; preds = %45, %16
  %47 = load ptr, ptr %3, align 8
  %48 = getelementptr inbounds nuw %struct.CommandBufferCommonHeader, ptr %47, i32 0, i32 0
  %49 = load ptr, ptr %48, align 8
  %50 = getelementptr inbounds nuw %struct.SDL_GPUDevice, ptr %49, i32 0, i32 12
  %51 = load ptr, ptr %50, align 8
  %52 = load ptr, ptr %3, align 8
  %53 = load ptr, ptr %4, align 8
  call void %51(ptr noundef %52, ptr noundef %53)
  br label %54

54:                                               ; preds = %46, %44, %14, %9
  ret void

55:                                               ; preds = %41
  unreachable
}